target datalayout = "e-m:e-p270:32:32-p271:32:32-p272:64:64-i64:64-i128:128-f80:128-n8:16:32:64-S128"
target triple = "x86_64-pc-linux-gnu"

%struct.AVFilterContext = type { ptr, ptr, ptr, ptr, ptr, i32, ptr, ptr, i32, ptr, ptr, i32, i32, ptr, ptr, ptr, ptr, i32, ptr, i32, i32 }
%struct.BackgroundkeyContext = type { ptr, float, float, float, i32, i32, i32, i32, i64, ptr, ptr, ptr }
%struct.AVFilterLink = type { ptr, ptr, ptr, ptr, i32, i32, i32, i32, %struct.AVRational, i32, i32, i32, %struct.AVChannelLayout, %struct.AVRational, ptr, i32, %struct.AVFilterFormatsConfig, %struct.AVFilterFormatsConfig }
%struct.AVChannelLayout = type { i32, i32, %union.anon.1, ptr }
%union.anon.1 = type { i64 }
%struct.AVRational = type { i32, i32 }
%struct.AVFilterFormatsConfig = type { ptr, ptr, ptr, ptr, ptr }
%struct.AVFrame = type { [8 x ptr], [8 x i32], ptr, i32, i32, i32, i32, i32, %struct.AVRational, i64, i64, %struct.AVRational, i32, ptr, i32, i32, [8 x ptr], ptr, i32, ptr, i32, i32, i32, i32, i32, i32, i32, i64, ptr, i32, ptr, ptr, i64, i64, i64, i64, ptr, %struct.AVChannelLayout, i64 }

; Function Attrs: nounwind uwtable
define internal i32 @filter_frame(ptr noundef %0, ptr noundef %1) #2 {
  %3 = alloca i32, align 4
  %4 = alloca ptr, align 8
  %5 = alloca ptr, align 8
  %6 = alloca ptr, align 8
  %7 = alloca ptr, align 8
  %8 = alloca i64, align 8
  %9 = alloca i32, align 4
  %10 = alloca i32, align 4
  %11 = alloca i32, align 4
  store ptr %0, ptr %4, align 8, !tbaa !24
  store ptr %1, ptr %5, align 8, !tbaa !26
  call void @llvm.lifetime.start.p0(i64 8, ptr %6) #6
  %12 = load ptr, ptr %4, align 8, !tbaa !24
  %13 = getelementptr inbounds nuw %struct.AVFilterLink, ptr %12, i32 0, i32 2
  %14 = load ptr, ptr %13, align 8, !tbaa !28
  store ptr %14, ptr %6, align 8, !tbaa !4
  call void @llvm.lifetime.start.p0(i64 8, ptr %7) #6
  %15 = load ptr, ptr %6, align 8, !tbaa !4
  %16 = getelementptr inbounds nuw %struct.AVFilterContext, ptr %15, i32 0, i32 9
  %17 = load ptr, ptr %16, align 8, !tbaa !9
  store ptr %17, ptr %7, align 8, !tbaa !22
  call void @llvm.lifetime.start.p0(i64 8, ptr %8) #6
  store i64 0, ptr %8, align 8, !tbaa !36
  call void @llvm.lifetime.start.p0(i64 4, ptr %9) #6
  store i32 0, ptr %9, align 4, !tbaa !38
  %18 = load ptr, ptr %7, align 8, !tbaa !22
  %19 = getelementptr inbounds nuw %struct.BackgroundkeyContext, ptr %18, i32 0, i32 10
  %20 = load ptr, ptr %19, align 8, !tbaa !39
  %21 = icmp ne ptr %20, null
  br i1 %21, label %48, label %22

22:                                               ; preds = %2
  %23 = load ptr, ptr %4, align 8, !tbaa !24
  %24 = load ptr, ptr %5, align 8, !tbaa !26
  %25 = getelementptr inbounds nuw %struct.AVFrame, ptr %24, i32 0, i32 3
  %26 = load i32, ptr %25, align 8, !tbaa !43
  %27 = load ptr, ptr %5, align 8, !tbaa !26
  %28 = getelementptr inbounds nuw %struct.AVFrame, ptr %27, i32 0, i32 4
  %29 = load i32, ptr %28, align 4, !tbaa !48
  %30 = call ptr @ff_get_video_buffer(ptr noundef %23, i32 noundef %26, i32 noundef %29)
  %31 = load ptr, ptr %7, align 8, !tbaa !22
  %32 = getelementptr inbounds nuw %struct.BackgroundkeyContext, ptr %31, i32 0, i32 10
  store ptr %30, ptr %32, align 8, !tbaa !39
  %33 = load ptr, ptr %7, align 8, !tbaa !22
  %34 = getelementptr inbounds nuw %struct.BackgroundkeyContext, ptr %33, i32 0, i32 10
  %35 = load ptr, ptr %34, align 8, !tbaa !39
  %36 = icmp ne ptr %35, null
  br i1 %36, label %38, label %37

37:                                               ; preds = %22
  store i32 -12, ptr %9, align 4, !tbaa !38
  br label %125

38:                                               ; preds = %22
  %39 = load ptr, ptr %7, align 8, !tbaa !22
  %40 = getelementptr inbounds nuw %struct.BackgroundkeyContext, ptr %39, i32 0, i32 10
  %41 = load ptr, ptr %40, align 8, !tbaa !39
  %42 = load ptr, ptr %5, align 8, !tbaa !26
  %43 = call i32 @av_frame_copy(ptr noundef %41, ptr noundef %42)
  store i32 %43, ptr %9, align 4, !tbaa !38
  %44 = load i32, ptr %9, align 4, !tbaa !38
  %45 = icmp slt i32 %44, 0
  br i1 %45, label %46, label %47

46:                                               ; preds = %38
  br label %125

47:                                               ; preds = %38
  br label %48

48:                                               ; preds = %47, %2
  %49 = load ptr, ptr %6, align 8, !tbaa !4
  %50 = load ptr, ptr %7, align 8, !tbaa !22
  %51 = getelementptr inbounds nuw %struct.BackgroundkeyContext, ptr %50, i32 0, i32 11
  %52 = load ptr, ptr %51, align 8, !tbaa !49
  %53 = load ptr, ptr %5, align 8, !tbaa !26
  %54 = load ptr, ptr %5, align 8, !tbaa !26
  %55 = getelementptr inbounds nuw %struct.AVFrame, ptr %54, i32 0, i32 4
  %56 = load i32, ptr %55, align 4, !tbaa !48
  %57 = load ptr, ptr %7, align 8, !tbaa !22
  %58 = getelementptr inbounds nuw %struct.BackgroundkeyContext, ptr %57, i32 0, i32 5
  %59 = load i32, ptr %58, align 8, !tbaa !50
  %60 = icmp sgt i32 %56, %59
  br i1 %60, label %61, label %65

61:                                               ; preds = %48
  %62 = load ptr, ptr %7, align 8, !tbaa !22
  %63 = getelementptr inbounds nuw %struct.BackgroundkeyContext, ptr %62, i32 0, i32 5
  %64 = load i32, ptr %63, align 8, !tbaa !50
  br label %69

65:                                               ; preds = %48
  %66 = load ptr, ptr %5, align 8, !tbaa !26
  %67 = getelementptr inbounds nuw %struct.AVFrame, ptr %66, i32 0, i32 4
  %68 = load i32, ptr %67, align 4, !tbaa !48
  br label %69

69:                                               ; preds = %65, %61
  %70 = phi i32 [ %64, %61 ], [ %68, %65 ]
  %71 = call i32 @ff_filter_execute(ptr noundef %49, ptr noundef %52, ptr noundef %53, ptr noundef null, i32 noundef %70)
  store i32 %71, ptr %9, align 4, !tbaa !38
  %72 = icmp ne i32 %71, 0
  br i1 %72, label %73, label %74

73:                                               ; preds = %69
  br label %125

74:                                               ; preds = %69
  call void @llvm.lifetime.start.p0(i64 4, ptr %10) #6
  store i32 0, ptr %10, align 4, !tbaa !38
  br label %75

75:                                               ; preds = %92, %74
  %76 = load i32, ptr %10, align 4, !tbaa !38
  %77 = load ptr, ptr %7, align 8, !tbaa !22
  %78 = getelementptr inbounds nuw %struct.BackgroundkeyContext, ptr %77, i32 0, i32 5
  %79 = load i32, ptr %78, align 8, !tbaa !50
  %80 = icmp slt i32 %76, %79
  br i1 %80, label %82, label %81

81:                                               ; preds = %75
  call void @llvm.lifetime.end.p0(i64 4, ptr %10) #6
  br label %95

82:                                               ; preds = %75
  %83 = load ptr, ptr %7, align 8, !tbaa !22
  %84 = getelementptr inbounds nuw %struct.BackgroundkeyContext, ptr %83, i32 0, i32 9
  %85 = load ptr, ptr %84, align 8, !tbaa !51
  %86 = load i32, ptr %10, align 4, !tbaa !38
  %87 = sext i32 %86 to i64
  %88 = getelementptr inbounds i64, ptr %85, i64 %87
  %89 = load i64, ptr %88, align 8, !tbaa !36
  %90 = load i64, ptr %8, align 8, !tbaa !36
  %91 = add nsw i64 %90, %89
  store i64 %91, ptr %8, align 8, !tbaa !36
  br label %92

92:                                               ; preds = %82
  %93 = load i32, ptr %10, align 4, !tbaa !38
  %94 = add nsw i32 %93, 1
  store i32 %94, ptr %10, align 4, !tbaa !38
  br label %75, !llvm.loop !52

95:                                               ; preds = %81
  %96 = load ptr, ptr %7, align 8, !tbaa !22
  %97 = getelementptr inbounds nuw %struct.BackgroundkeyContext, ptr %96, i32 0, i32 8
  %98 = load i64, ptr %97, align 8, !tbaa !54
  %99 = sitofp i64 %98 to float
  %100 = load ptr, ptr %7, align 8, !tbaa !22
  %101 = getelementptr inbounds nuw %struct.BackgroundkeyContext, ptr %100, i32 0, i32 1
  %102 = load float, ptr %101, align 8, !tbaa !55
  %103 = fmul nsz float %99, %102
  %104 = load i64, ptr %8, align 8, !tbaa !36
  %105 = sitofp i64 %104 to float
  %106 = fcmp nsz olt float %103, %105
  br i1 %106, label %107, label %117

107:                                              ; preds = %95
  %108 = load ptr, ptr %7, align 8, !tbaa !22
  %109 = getelementptr inbounds nuw %struct.BackgroundkeyContext, ptr %108, i32 0, i32 10
  %110 = load ptr, ptr %109, align 8, !tbaa !39
  %111 = load ptr, ptr %5, align 8, !tbaa !26
  %112 = call i32 @av_frame_copy(ptr noundef %110, ptr noundef %111)
  store i32 %112, ptr %9, align 4, !tbaa !38
  %113 = load i32, ptr %9, align 4, !tbaa !38
  %114 = icmp slt i32 %113, 0
  br i1 %114, label %115, label %116

115:                                              ; preds = %107
  br label %125

116:                                              ; preds = %107
  br label %117

117:                                              ; preds = %116, %95
  %118 = load ptr, ptr %6, align 8, !tbaa !4
  %119 = getelementptr inbounds nuw %struct.AVFilterContext, ptr %118, i32 0, i32 7
  %120 = load ptr, ptr %119, align 8, !tbaa !56
  %121 = getelementptr inbounds ptr, ptr %120, i64 0
  %122 = load ptr, ptr %121, align 8, !tbaa !24
  %123 = load ptr, ptr %5, align 8, !tbaa !26
  %124 = call i32 @ff_filter_frame(ptr noundef %122, ptr noundef %123)
  store i32 %124, ptr %3, align 4
  store i32 1, ptr %11, align 4
  br label %127

125:                                              ; preds = %115, %73, %46, %37
  call void @av_frame_free(ptr noundef %5)
  %126 = load i32, ptr %9, align 4, !tbaa !38
  store i32 %126, ptr %3, align 4
  store i32 1, ptr %11, align 4
  br label %127

127:                                              ; preds = %125, %117
  call void @llvm.lifetime.end.p0(i64 4, ptr %9) #6
  call void @llvm.lifetime.end.p0(i64 8, ptr %8) #6
  call void @llvm.lifetime.end.p0(i64 8, ptr %7) #6
  call void @llvm.lifetime.end.p0(i64 8, ptr %6) #6
  %128 = load i32, ptr %3, align 4
  ret i32 %128
}