; Function Attrs: nounwind uwtable
define internal i32 @filter_frame(ptr noundef %0, ptr noundef %1) #2 {
  %3 = alloca ptr, align 8
  store ptr %1, ptr %3, align 8, !tbaa !20
  %4 = getelementptr inbounds nuw i8, ptr %0, i64 16
  %5 = load ptr, ptr %4, align 8, !tbaa !22
  %6 = getelementptr inbounds nuw i8, ptr %5, i64 72
  %7 = load ptr, ptr %6, align 8, !tbaa !4
  %8 = getelementptr inbounds nuw i8, ptr %7, i64 56
  %9 = load ptr, ptr %8, align 8, !tbaa !31
  %.not = icmp eq ptr %9, null
  br i1 %.not, label %10, label %19

10:                                               ; preds = %2
  %11 = getelementptr inbounds nuw i8, ptr %1, i64 104
  %12 = load i32, ptr %11, align 8, !tbaa !36
  %13 = getelementptr inbounds nuw i8, ptr %1, i64 108
  %14 = load i32, ptr %13, align 4, !tbaa !41
  %15 = tail call ptr @ff_get_video_buffer(ptr noundef nonnull %0, i32 noundef %12, i32 noundef %14) #6
  store ptr %15, ptr %8, align 8, !tbaa !31
  %.not34 = icmp eq ptr %15, null
  br i1 %.not34, label %52, label %16

16:                                               ; preds = %10
  %17 = tail call i32 @av_frame_copy(ptr noundef nonnull %15, ptr noundef nonnull %1) #6
  %18 = icmp slt i32 %17, 0
  br i1 %18, label %52, label %19

19:                                               ; preds = %16, %2
  %20 = getelementptr inbounds nuw i8, ptr %7, i64 64
  %21 = load ptr, ptr %20, align 8, !tbaa !42
  %22 = getelementptr inbounds nuw i8, ptr %1, i64 108
  %23 = load i32, ptr %22, align 4, !tbaa !41
  %24 = getelementptr inbounds nuw i8, ptr %7, i64 24
  %25 = load i32, ptr %24, align 8, !tbaa !43
  %. = tail call i32 @llvm.smin.i32(i32 %23, i32 %25)
  %26 = tail call i32 @ff_filter_execute(ptr noundef nonnull %5, ptr noundef %21, ptr noundef %1, ptr noundef null, i32 noundef %.) #6
  %.not35 = icmp eq i32 %26, 0
  br i1 %.not35, label %.preheader, label %52

.preheader:                                       ; preds = %19
  %27 = load i32, ptr %24, align 8, !tbaa !43
  %28 = icmp sgt i32 %27, 0
  br i1 %28, label %.lr.ph, label %._crit_edge

.lr.ph:                                           ; preds = %.preheader
  %29 = getelementptr inbounds nuw i8, ptr %7, i64 48
  %30 = load ptr, ptr %29, align 8, !tbaa !44
  %wide.trip.count = zext nneg i32 %27 to i64
  br label %39

._crit_edge.loopexit:                             ; preds = %39
  %31 = sitofp i64 %42 to float
  br label %._crit_edge

._crit_edge:                                      ; preds = %._crit_edge.loopexit, %.preheader
  %.026.lcssa = phi float [ 0.000000e+00, %.preheader ], [ %31, %._crit_edge.loopexit ]
  %32 = getelementptr inbounds nuw i8, ptr %7, i64 40
  %33 = load i64, ptr %32, align 8, !tbaa !45
  %34 = sitofp i64 %33 to float
  %35 = getelementptr inbounds nuw i8, ptr %7, i64 8
  %36 = load float, ptr %35, align 8, !tbaa !46
  %37 = fmul nsz float %36, %34
  %38 = fcmp nsz olt float %37, %.026.lcssa
  br i1 %38, label %43, label %47

39:                                               ; preds = %.lr.ph, %39
  %indvars.iv = phi i64 [ 0, %.lr.ph ], [ %indvars.iv.next, %39 ]
  %.02636 = phi i64 [ 0, %.lr.ph ], [ %42, %39 ]
  %40 = getelementptr inbounds nuw i64, ptr %30, i64 %indvars.iv
  %41 = load i64, ptr %40, align 8, !tbaa !47
  %42 = add nsw i64 %41, %.02636
  %indvars.iv.next = add nuw nsw i64 %indvars.iv, 1
  %exitcond.not = icmp eq i64 %indvars.iv.next, %wide.trip.count
  br i1 %exitcond.not, label %._crit_edge.loopexit, label %39, !llvm.loop !48

43:                                               ; preds = %._crit_edge
  %44 = load ptr, ptr %8, align 8, !tbaa !31
  %45 = tail call i32 @av_frame_copy(ptr noundef %44, ptr noundef nonnull %1) #6
  %46 = icmp slt i32 %45, 0
  br i1 %46, label %52, label %47

47:                                               ; preds = %43, %._crit_edge
  %48 = getelementptr inbounds nuw i8, ptr %5, i64 56
  %49 = load ptr, ptr %48, align 8, !tbaa !50
  %50 = load ptr, ptr %49, align 8, !tbaa !51
  %51 = tail call i32 @ff_filter_frame(ptr noundef %50, ptr noundef nonnull %1) #6
  br label %53

52:                                               ; preds = %10, %43, %19, %16
  %.025 = phi i32 [ %26, %19 ], [ %45, %43 ], [ %17, %16 ], [ -12, %10 ]
  call void @av_frame_free(ptr noundef nonnull %3) #6
  br label %53

53:                                               ; preds = %52, %47
  %.027 = phi i32 [ %.025, %52 ], [ %51, %47 ]
  ret i32 %.027
}